target datalayout = "e-m:e-p270:32:32-p271:32:32-p272:64:64-i64:64-i128:128-f80:128-n8:16:32:64-S128"
target triple = "x86_64-pc-linux-gnu"

%struct.JsonLexContext = type { ptr, i64, i32, ptr, ptr, ptr, i8, i32, i32, i32, i32, ptr, ptr, ptr, i8, ptr, ptr }
%struct.JsonIncrementalState = type { i8, i8, i8, %struct.PQExpBufferData }
%struct.PQExpBufferData = type { ptr, i64, i64 }

; Function Attrs: nounwind uwtable
define void @setJsonLexContextOwnsTokens(ptr noundef %0, i1 noundef zeroext %1) #1 {
  %3 = alloca ptr, align 8
  %4 = alloca i8, align 1
  store ptr %0, ptr %3, align 8
  %5 = zext i1 %1 to i8
  store i8 %5, ptr %4, align 1
  %6 = load ptr, ptr %3, align 8
  %7 = getelementptr inbounds nuw %struct.JsonLexContext, ptr %6, i32 0, i32 6
  %8 = load i8, ptr %7, align 8, !range !3, !noundef !4
  %9 = trunc i8 %8 to i1
  br i1 %9, label %10, label %18

10:                                               ; preds = %2
  %11 = load ptr, ptr %3, align 8
  %12 = getelementptr inbounds nuw %struct.JsonLexContext, ptr %11, i32 0, i32 13
  %13 = load ptr, ptr %12, align 8
  %14 = getelementptr inbounds nuw %struct.JsonIncrementalState, ptr %13, i32 0, i32 0
  %15 = load i8, ptr %14, align 8, !range !3, !noundef !4
  %16 = trunc i8 %15 to i1
  br i1 %16, label %17, label %18

17:                                               ; preds = %10
  br label %31

18:                                               ; preds = %10, %2
  %19 = load i8, ptr %4, align 1, !range !3, !noundef !4
  %20 = trunc i8 %19 to i1
  br i1 %20, label %21, label %26

21:                                               ; preds = %18
  %22 = load ptr, ptr %3, align 8
  %23 = getelementptr inbounds nuw %struct.JsonLexContext, ptr %22, i32 0, i32 9
  %24 = load i32, ptr %23, align 4
  %25 = or i32 %24, 4
  store i32 %25, ptr %23, align 4
  br label %31

26:                                               ; preds = %18
  %27 = load ptr, ptr %3, align 8
  %28 = getelementptr inbounds nuw %struct.JsonLexContext, ptr %27, i32 0, i32 9
  %29 = load i32, ptr %28, align 4
  %30 = and i32 %29, -5
  store i32 %30, ptr %28, align 4
  br label %31

31:                                               ; preds = %17, %26, %21
  ret void
}