; Function Attrs: mustprogress nofree norecurse nosync nounwind willreturn memory(read, argmem: readwrite, inaccessiblemem: none) uwtable
define void @setJsonLexContextOwnsTokens(ptr noundef captures(none) %0, i1 noundef zeroext %1) local_unnamed_addr #8 {
  %3 = getelementptr inbounds nuw i8, ptr %0, i64 48
  %4 = load i8, ptr %3, align 8, !range !3, !noundef !4
  %5 = trunc nuw i8 %4 to i1
  br i1 %5, label %6, label %.sink.split

6:                                                ; preds = %2
  %7 = getelementptr inbounds nuw i8, ptr %0, i64 88
  %8 = load ptr, ptr %7, align 8
  %9 = load i8, ptr %8, align 8, !range !3, !noundef !4
  %10 = trunc nuw i8 %9 to i1
  br i1 %10, label %14, label %.sink.split

.sink.split:                                      ; preds = %6, %2
  %11 = getelementptr inbounds nuw i8, ptr %0, i64 60
  %12 = load i32, ptr %11, align 4
  %13 = and i32 %12, -5
  %masksel = select i1 %1, i32 4, i32 0
  %.sink = or disjoint i32 %13, %masksel
  store i32 %.sink, ptr %11, align 4
  br label %14

14:                                               ; preds = %.sink.split, %6
  ret void
}